target datalayout = "e-m:e-p270:32:32-p271:32:32-p272:64:64-i64:64-i128:128-f80:128-n8:16:32:64-S128"
target triple = "x86_64-pc-linux-gnu"

%"class.base::(anonymous namespace)::SampleCountPickleIterator" = type <{ %"class.base::SampleCountIterator", ptr, i32, i32, i32, i8, [3 x i8] }>
%"class.base::SampleCountIterator" = type { ptr }

; Function Attrs: mustprogress nounwind uwtable
define internal void @_ZNK4base12_GLOBAL__N_125SampleCountPickleIterator3GetEPiS2_S2_(ptr noundef nonnull align 8 dereferenceable(29) %0, ptr noundef %1, ptr noundef %2, ptr noundef %3) unnamed_addr #1 align 2 {
  %5 = alloca ptr, align 8
  %6 = alloca ptr, align 8
  %7 = alloca ptr, align 8
  %8 = alloca ptr, align 8
  store ptr %0, ptr %5, align 8, !tbaa !34
  store ptr %1, ptr %6, align 8, !tbaa !23
  store ptr %2, ptr %7, align 8, !tbaa !23
  store ptr %3, ptr %8, align 8, !tbaa !23
  %9 = load ptr, ptr %5, align 8
  %10 = getelementptr inbounds nuw %"class.base::(anonymous namespace)::SampleCountPickleIterator", ptr %9, i32 0, i32 2
  %11 = load i32, ptr %10, align 8, !tbaa !56
  %12 = load ptr, ptr %6, align 8, !tbaa !23
  store i32 %11, ptr %12, align 4, !tbaa !25
  %13 = getelementptr inbounds nuw %"class.base::(anonymous namespace)::SampleCountPickleIterator", ptr %9, i32 0, i32 3
  %14 = load i32, ptr %13, align 4, !tbaa !57
  %15 = load ptr, ptr %7, align 8, !tbaa !23
  store i32 %14, ptr %15, align 4, !tbaa !25
  %16 = getelementptr inbounds nuw %"class.base::(anonymous namespace)::SampleCountPickleIterator", ptr %9, i32 0, i32 4
  %17 = load i32, ptr %16, align 8, !tbaa !58
  %18 = load ptr, ptr %8, align 8, !tbaa !23
  store i32 %17, ptr %18, align 4, !tbaa !25
  ret void
}