; Function Attrs: mustprogress nofree norecurse nosync nounwind willreturn memory(argmem: readwrite) uwtable
define internal void @_ZNK4base12_GLOBAL__N_125SampleCountPickleIterator3GetEPiS2_S2_(ptr noundef nonnull readonly align 8 captures(none) dereferenceable(29) %0, ptr noundef writeonly captures(none) initializes((0, 4)) %1, ptr noundef writeonly captures(none) initializes((0, 4)) %2, ptr noundef writeonly captures(none) initializes((0, 4)) %3) unnamed_addr #1 align 2 {
  %5 = getelementptr inbounds nuw i8, ptr %0, i64 16
  %6 = load i32, ptr %5, align 8, !tbaa !29
  store i32 %6, ptr %1, align 4, !tbaa !18
  %7 = getelementptr inbounds nuw i8, ptr %0, i64 20
  %8 = load i32, ptr %7, align 4, !tbaa !30
  store i32 %8, ptr %2, align 4, !tbaa !18
  %9 = getelementptr inbounds nuw i8, ptr %0, i64 24
  %10 = load i32, ptr %9, align 8, !tbaa !31
  store i32 %10, ptr %3, align 4, !tbaa !18
  ret void
}